target datalayout = "e-m:e-p270:32:32-p271:32:32-p272:64:64-i64:64-i128:128-f80:128-n8:16:32:64-S128"
target triple = "x86_64-pc-linux-gnu"

%struct.AVRational = type { i32, i32 }
%struct.AVFormatContext = type { ptr, ptr, ptr, ptr, ptr, i32, i32, ptr, i32, ptr, i32, ptr, ptr, i64, i64, i64, i32, i32, i32, i64, i64, ptr, i32, i32, ptr, i32, i32, i32, i32, ptr, i64, i32, i32, %struct.AVIOInterruptCB, i32, i32, i32, i32, i64, i32, i32, i32, i32, i32, i32, i32, i32, i32, i32, i32, i32, i64, i32, i32, i32, i32, i32, ptr, ptr, ptr, ptr, i32, ptr, ptr, ptr, ptr, i32, ptr, ptr, i64, ptr, ptr, ptr, i64 }
%struct.AVIOInterruptCB = type { ptr, ptr }
%struct.SERDemuxerContext = type { ptr, i32, i32, %struct.AVRational, i64 }
%struct.AVStream = type { ptr, i32, i32, ptr, ptr, %struct.AVRational, i64, i64, i64, i32, i32, %struct.AVRational, ptr, %struct.AVRational, %struct.AVPacket, i32, %struct.AVRational, i32 }
%struct.AVPacket = type { ptr, i64, i64, ptr, i32, i32, i32, ptr, i32, i64, i64, ptr, ptr, %struct.AVRational }
%struct.AVCodecParameters = type { i32, i32, i32, ptr, i32, ptr, i32, i32, i64, i32, i32, i32, i32, i32, i32, %struct.AVRational, %struct.AVRational, i32, i32, i32, i32, i32, i32, i32, %struct.AVChannelLayout, i32, i32, i32, i32, i32, i32 }
%struct.AVChannelLayout = type { i32, i32, %union.anon.0, ptr }
%union.anon.0 = type { i64 }

; Function Attrs: nounwind uwtable
define internal i32 @ser_read_header(ptr noundef %0) #0 {
  %2 = alloca i32, align 4
  %3 = alloca ptr, align 8
  %4 = alloca ptr, align 8
  %5 = alloca i32, align 4
  %6 = alloca i32, align 4
  %7 = alloca i32, align 4
  %8 = alloca i32, align 4
  %9 = alloca i32, align 4
  %10 = alloca ptr, align 8
  %11 = alloca i32, align 4
  %12 = alloca %struct.AVRational, align 4
  store ptr %0, ptr %3, align 8, !tbaa !13
  call void @llvm.lifetime.start.p0(i64 8, ptr %4) #7
  %13 = load ptr, ptr %3, align 8, !tbaa !13
  %14 = getelementptr inbounds nuw %struct.AVFormatContext, ptr %13, i32 0, i32 3
  %15 = load ptr, ptr %14, align 8, !tbaa !15
  store ptr %15, ptr %4, align 8, !tbaa !30
  call void @llvm.lifetime.start.p0(i64 4, ptr %5) #7
  call void @llvm.lifetime.start.p0(i64 4, ptr %6) #7
  call void @llvm.lifetime.start.p0(i64 4, ptr %7) #7
  call void @llvm.lifetime.start.p0(i64 4, ptr %8) #7
  call void @llvm.lifetime.start.p0(i64 4, ptr %9) #7
  call void @llvm.lifetime.start.p0(i64 8, ptr %10) #7
  %16 = load ptr, ptr %3, align 8, !tbaa !13
  %17 = call ptr @avformat_new_stream(ptr noundef %16, ptr noundef null)
  store ptr %17, ptr %10, align 8, !tbaa !32
  %18 = load ptr, ptr %10, align 8, !tbaa !32
  %19 = icmp ne ptr %18, null
  br i1 %19, label %21, label %20

20:                                               ; preds = %1
  store i32 -12, ptr %2, align 4
  store i32 1, ptr %11, align 4
  br label %228

21:                                               ; preds = %1
  %22 = load ptr, ptr %3, align 8, !tbaa !13
  %23 = getelementptr inbounds nuw %struct.AVFormatContext, ptr %22, i32 0, i32 4
  %24 = load ptr, ptr %23, align 8, !tbaa !34
  %25 = call i64 @avio_skip(ptr noundef %24, i64 noundef 14)
  %26 = load ptr, ptr %3, align 8, !tbaa !13
  %27 = getelementptr inbounds nuw %struct.AVFormatContext, ptr %26, i32 0, i32 4
  %28 = load ptr, ptr %27, align 8, !tbaa !34
  %29 = call i64 @avio_skip(ptr noundef %28, i64 noundef 4)
  %30 = load ptr, ptr %3, align 8, !tbaa !13
  %31 = getelementptr inbounds nuw %struct.AVFormatContext, ptr %30, i32 0, i32 4
  %32 = load ptr, ptr %31, align 8, !tbaa !34
  %33 = call i32 @avio_rl32(ptr noundef %32)
  store i32 %33, ptr %7, align 4, !tbaa !35
  %34 = load ptr, ptr %3, align 8, !tbaa !13
  %35 = getelementptr inbounds nuw %struct.AVFormatContext, ptr %34, i32 0, i32 4
  %36 = load ptr, ptr %35, align 8, !tbaa !34
  %37 = call i32 @avio_rl32(ptr noundef %36)
  store i32 %37, ptr %8, align 4, !tbaa !35
  %38 = load ptr, ptr %3, align 8, !tbaa !13
  %39 = getelementptr inbounds nuw %struct.AVFormatContext, ptr %38, i32 0, i32 4
  %40 = load ptr, ptr %39, align 8, !tbaa !34
  %41 = call i32 @avio_rl32(ptr noundef %40)
  %42 = load ptr, ptr %4, align 8, !tbaa !30
  %43 = getelementptr inbounds nuw %struct.SERDemuxerContext, ptr %42, i32 0, i32 1
  store i32 %41, ptr %43, align 8, !tbaa !36
  %44 = load ptr, ptr %3, align 8, !tbaa !13
  %45 = getelementptr inbounds nuw %struct.AVFormatContext, ptr %44, i32 0, i32 4
  %46 = load ptr, ptr %45, align 8, !tbaa !34
  %47 = call i32 @avio_rl32(ptr noundef %46)
  %48 = load ptr, ptr %4, align 8, !tbaa !30
  %49 = getelementptr inbounds nuw %struct.SERDemuxerContext, ptr %48, i32 0, i32 2
  store i32 %47, ptr %49, align 4, !tbaa !39
  %50 = load ptr, ptr %3, align 8, !tbaa !13
  %51 = getelementptr inbounds nuw %struct.AVFormatContext, ptr %50, i32 0, i32 4
  %52 = load ptr, ptr %51, align 8, !tbaa !34
  %53 = call i32 @avio_rl32(ptr noundef %52)
  store i32 %53, ptr %6, align 4, !tbaa !35
  %54 = load ptr, ptr %3, align 8, !tbaa !13
  %55 = getelementptr inbounds nuw %struct.AVFormatContext, ptr %54, i32 0, i32 4
  %56 = load ptr, ptr %55, align 8, !tbaa !34
  %57 = call i32 @avio_rl32(ptr noundef %56)
  %58 = zext i32 %57 to i64
  %59 = load ptr, ptr %10, align 8, !tbaa !32
  %60 = getelementptr inbounds nuw %struct.AVStream, ptr %59, i32 0, i32 7
  store i64 %58, ptr %60, align 8, !tbaa !40
  %61 = load ptr, ptr %10, align 8, !tbaa !32
  %62 = getelementptr inbounds nuw %struct.AVStream, ptr %61, i32 0, i32 8
  store i64 %58, ptr %62, align 8, !tbaa !46
  %63 = load ptr, ptr %3, align 8, !tbaa !13
  %64 = getelementptr inbounds nuw %struct.AVFormatContext, ptr %63, i32 0, i32 4
  %65 = load ptr, ptr %64, align 8, !tbaa !34
  %66 = call i64 @avio_skip(ptr noundef %65, i64 noundef 120)
  %67 = load ptr, ptr %3, align 8, !tbaa !13
  %68 = getelementptr inbounds nuw %struct.AVFormatContext, ptr %67, i32 0, i32 4
  %69 = load ptr, ptr %68, align 8, !tbaa !34
  %70 = call i64 @avio_skip(ptr noundef %69, i64 noundef 8)
  %71 = load ptr, ptr %3, align 8, !tbaa !13
  %72 = getelementptr inbounds nuw %struct.AVFormatContext, ptr %71, i32 0, i32 4
  %73 = load ptr, ptr %72, align 8, !tbaa !34
  %74 = call i64 @avio_skip(ptr noundef %73, i64 noundef 8)
  %75 = load i32, ptr %7, align 4, !tbaa !35
  switch i32 %75, label %146 [
    i32 0, label %76
    i32 8, label %86
    i32 9, label %96
    i32 10, label %106
    i32 11, label %116
    i32 100, label %126
    i32 101, label %136
  ]

76:                                               ; preds = %21
  %77 = load i32, ptr %6, align 4, !tbaa !35
  %78 = icmp sle i32 %77, 8
  br i1 %78, label %79, label %80

79:                                               ; preds = %76
  br label %84

80:                                               ; preds = %76
  %81 = load i32, ptr %8, align 4, !tbaa !35
  %82 = icmp ne i32 %81, 0
  %83 = select i1 %82, i32 29, i32 30
  br label %84

84:                                               ; preds = %80, %79
  %85 = phi i32 [ 8, %79 ], [ %83, %80 ]
  store i32 %85, ptr %5, align 4, !tbaa !35
  br label %147

86:                                               ; preds = %21
  %87 = load i32, ptr %6, align 4, !tbaa !35
  %88 = icmp sle i32 %87, 8
  br i1 %88, label %89, label %90

89:                                               ; preds = %86
  br label %94

90:                                               ; preds = %86
  %91 = load i32, ptr %8, align 4, !tbaa !35
  %92 = icmp ne i32 %91, 0
  %93 = select i1 %92, i32 146, i32 145
  br label %94

94:                                               ; preds = %90, %89
  %95 = phi i32 [ 140, %89 ], [ %93, %90 ]
  store i32 %95, ptr %5, align 4, !tbaa !35
  br label %147

96:                                               ; preds = %21
  %97 = load i32, ptr %6, align 4, !tbaa !35
  %98 = icmp sle i32 %97, 8
  br i1 %98, label %99, label %100

99:                                               ; preds = %96
  br label %104

100:                                              ; preds = %96
  %101 = load i32, ptr %8, align 4, !tbaa !35
  %102 = icmp ne i32 %101, 0
  %103 = select i1 %102, i32 150, i32 149
  br label %104

104:                                              ; preds = %100, %99
  %105 = phi i32 [ 142, %99 ], [ %103, %100 ]
  store i32 %105, ptr %5, align 4, !tbaa !35
  br label %147

106:                                              ; preds = %21
  %107 = load i32, ptr %6, align 4, !tbaa !35
  %108 = icmp sle i32 %107, 8
  br i1 %108, label %109, label %110

109:                                              ; preds = %106
  br label %114

110:                                              ; preds = %106
  %111 = load i32, ptr %8, align 4, !tbaa !35
  %112 = icmp ne i32 %111, 0
  %113 = select i1 %112, i32 148, i32 147
  br label %114

114:                                              ; preds = %110, %109
  %115 = phi i32 [ 141, %109 ], [ %113, %110 ]
  store i32 %115, ptr %5, align 4, !tbaa !35
  br label %147

116:                                              ; preds = %21
  %117 = load i32, ptr %6, align 4, !tbaa !35
  %118 = icmp sle i32 %117, 8
  br i1 %118, label %119, label %120

119:                                              ; preds = %116
  br label %124

120:                                              ; preds = %116
  %121 = load i32, ptr %8, align 4, !tbaa !35
  %122 = icmp ne i32 %121, 0
  %123 = select i1 %122, i32 144, i32 143
  br label %124

124:                                              ; preds = %120, %119
  %125 = phi i32 [ 139, %119 ], [ %123, %120 ]
  store i32 %125, ptr %5, align 4, !tbaa !35
  br label %147

126:                                              ; preds = %21
  %127 = load i32, ptr %6, align 4, !tbaa !35
  %128 = icmp sle i32 %127, 8
  br i1 %128, label %129, label %130

129:                                              ; preds = %126
  br label %134

130:                                              ; preds = %126
  %131 = load i32, ptr %8, align 4, !tbaa !35
  %132 = icmp ne i32 %131, 0
  %133 = select i1 %132, i32 34, i32 35
  br label %134

134:                                              ; preds = %130, %129
  %135 = phi i32 [ 2, %129 ], [ %133, %130 ]
  store i32 %135, ptr %5, align 4, !tbaa !35
  br label %147

136:                                              ; preds = %21
  %137 = load i32, ptr %6, align 4, !tbaa !35
  %138 = icmp sle i32 %137, 8
  br i1 %138, label %139, label %140

139:                                              ; preds = %136
  br label %144

140:                                              ; preds = %136
  %141 = load i32, ptr %8, align 4, !tbaa !35
  %142 = icmp ne i32 %141, 0
  %143 = select i1 %142, i32 57, i32 58
  br label %144

144:                                              ; preds = %140, %139
  %145 = phi i32 [ 3, %139 ], [ %143, %140 ]
  store i32 %145, ptr %5, align 4, !tbaa !35
  br label %147

146:                                              ; preds = %21
  store i32 -1163346256, ptr %2, align 4
  store i32 1, ptr %11, align 4
  br label %228

147:                                              ; preds = %144, %134, %124, %114, %104, %94, %84
  %148 = load ptr, ptr %10, align 8, !tbaa !32
  %149 = getelementptr inbounds nuw %struct.AVStream, ptr %148, i32 0, i32 3
  %150 = load ptr, ptr %149, align 8, !tbaa !47
  %151 = getelementptr inbounds nuw %struct.AVCodecParameters, ptr %150, i32 0, i32 0
  store i32 0, ptr %151, align 8, !tbaa !48
  %152 = load ptr, ptr %10, align 8, !tbaa !32
  %153 = getelementptr inbounds nuw %struct.AVStream, ptr %152, i32 0, i32 3
  %154 = load ptr, ptr %153, align 8, !tbaa !47
  %155 = getelementptr inbounds nuw %struct.AVCodecParameters, ptr %154, i32 0, i32 1
  store i32 13, ptr %155, align 4, !tbaa !51
  %156 = load ptr, ptr %10, align 8, !tbaa !32
  %157 = load ptr, ptr %4, align 8, !tbaa !30
  %158 = getelementptr inbounds nuw %struct.SERDemuxerContext, ptr %157, i32 0, i32 3
  %159 = getelementptr inbounds nuw %struct.AVRational, ptr %158, i32 0, i32 1
  %160 = load i32, ptr %159, align 4, !tbaa !52
  %161 = load ptr, ptr %4, align 8, !tbaa !30
  %162 = getelementptr inbounds nuw %struct.SERDemuxerContext, ptr %161, i32 0, i32 3
  %163 = getelementptr inbounds nuw %struct.AVRational, ptr %162, i32 0, i32 0
  %164 = load i32, ptr %163, align 8, !tbaa !53
  call void @avpriv_set_pts_info(ptr noundef %156, i32 noundef 64, i32 noundef %160, i32 noundef %164)
  %165 = load ptr, ptr %4, align 8, !tbaa !30
  %166 = getelementptr inbounds nuw %struct.SERDemuxerContext, ptr %165, i32 0, i32 1
  %167 = load i32, ptr %166, align 8, !tbaa !36
  %168 = load ptr, ptr %10, align 8, !tbaa !32
  %169 = getelementptr inbounds nuw %struct.AVStream, ptr %168, i32 0, i32 3
  %170 = load ptr, ptr %169, align 8, !tbaa !47
  %171 = getelementptr inbounds nuw %struct.AVCodecParameters, ptr %170, i32 0, i32 13
  store i32 %167, ptr %171, align 8, !tbaa !54
  %172 = load ptr, ptr %4, align 8, !tbaa !30
  %173 = getelementptr inbounds nuw %struct.SERDemuxerContext, ptr %172, i32 0, i32 2
  %174 = load i32, ptr %173, align 4, !tbaa !39
  %175 = load ptr, ptr %10, align 8, !tbaa !32
  %176 = getelementptr inbounds nuw %struct.AVStream, ptr %175, i32 0, i32 3
  %177 = load ptr, ptr %176, align 8, !tbaa !47
  %178 = getelementptr inbounds nuw %struct.AVCodecParameters, ptr %177, i32 0, i32 14
  store i32 %174, ptr %178, align 4, !tbaa !55
  %179 = load i32, ptr %5, align 4, !tbaa !35
  %180 = load ptr, ptr %10, align 8, !tbaa !32
  %181 = getelementptr inbounds nuw %struct.AVStream, ptr %180, i32 0, i32 3
  %182 = load ptr, ptr %181, align 8, !tbaa !47
  %183 = getelementptr inbounds nuw %struct.AVCodecParameters, ptr %182, i32 0, i32 7
  store i32 %179, ptr %183, align 4, !tbaa !56
  %184 = load ptr, ptr %10, align 8, !tbaa !32
  %185 = getelementptr inbounds nuw %struct.AVStream, ptr %184, i32 0, i32 3
  %186 = load ptr, ptr %185, align 8, !tbaa !47
  %187 = getelementptr inbounds nuw %struct.AVCodecParameters, ptr %186, i32 0, i32 7
  %188 = load i32, ptr %187, align 4, !tbaa !56
  %189 = load ptr, ptr %4, align 8, !tbaa !30
  %190 = getelementptr inbounds nuw %struct.SERDemuxerContext, ptr %189, i32 0, i32 1
  %191 = load i32, ptr %190, align 8, !tbaa !36
  %192 = load ptr, ptr %4, align 8, !tbaa !30
  %193 = getelementptr inbounds nuw %struct.SERDemuxerContext, ptr %192, i32 0, i32 2
  %194 = load i32, ptr %193, align 4, !tbaa !39
  %195 = call i32 @av_image_get_buffer_size(i32 noundef %188, i32 noundef %191, i32 noundef %194, i32 noundef 1)
  store i32 %195, ptr %9, align 4, !tbaa !35
  %196 = load i32, ptr %9, align 4, !tbaa !35
  %197 = icmp slt i32 %196, 0
  br i1 %197, label %198, label %200

198:                                              ; preds = %147
  %199 = load i32, ptr %9, align 4, !tbaa !35
  store i32 %199, ptr %2, align 4
  store i32 1, ptr %11, align 4
  br label %228

200:                                              ; preds = %147
  %201 = load ptr, ptr %10, align 8, !tbaa !32
  %202 = getelementptr inbounds nuw %struct.AVStream, ptr %201, i32 0, i32 8
  %203 = load i64, ptr %202, align 8, !tbaa !46
  %204 = load i32, ptr %9, align 4, !tbaa !35
  %205 = sext i32 %204 to i64
  %206 = mul nsw i64 %203, %205
  %207 = add nsw i64 178, %206
  %208 = load ptr, ptr %4, align 8, !tbaa !30
  %209 = getelementptr inbounds nuw %struct.SERDemuxerContext, ptr %208, i32 0, i32 4
  store i64 %207, ptr %209, align 8, !tbaa !57
  %210 = load i32, ptr %9, align 4, !tbaa !35
  %211 = load ptr, ptr %3, align 8, !tbaa !13
  %212 = getelementptr inbounds nuw %struct.AVFormatContext, ptr %211, i32 0, i32 16
  store i32 %210, ptr %212, align 8, !tbaa !58
  %213 = load ptr, ptr %3, align 8, !tbaa !13
  %214 = getelementptr inbounds nuw %struct.AVFormatContext, ptr %213, i32 0, i32 16
  %215 = load i32, ptr %214, align 8, !tbaa !58
  %216 = zext i32 %215 to i64
  %217 = getelementptr inbounds nuw %struct.AVRational, ptr %12, i32 0, i32 0
  store i32 8, ptr %217, align 4, !tbaa !59
  %218 = getelementptr inbounds nuw %struct.AVRational, ptr %12, i32 0, i32 1
  store i32 1, ptr %218, align 4, !tbaa !60
  %219 = load ptr, ptr %10, align 8, !tbaa !32
  %220 = getelementptr inbounds nuw %struct.AVStream, ptr %219, i32 0, i32 5
  %221 = load i64, ptr %12, align 4
  %222 = load i64, ptr %220, align 8
  %223 = call i64 @av_rescale_q(i64 noundef %216, i64 %221, i64 %222) #8
  %224 = load ptr, ptr %10, align 8, !tbaa !32
  %225 = getelementptr inbounds nuw %struct.AVStream, ptr %224, i32 0, i32 3
  %226 = load ptr, ptr %225, align 8, !tbaa !47
  %227 = getelementptr inbounds nuw %struct.AVCodecParameters, ptr %226, i32 0, i32 8
  store i64 %223, ptr %227, align 8, !tbaa !61
  store i32 0, ptr %2, align 4
  store i32 1, ptr %11, align 4
  br label %228

228:                                              ; preds = %200, %198, %146, %20
  call void @llvm.lifetime.end.p0(i64 8, ptr %10) #7
  call void @llvm.lifetime.end.p0(i64 4, ptr %9) #7
  call void @llvm.lifetime.end.p0(i64 4, ptr %8) #7
  call void @llvm.lifetime.end.p0(i64 4, ptr %7) #7
  call void @llvm.lifetime.end.p0(i64 4, ptr %6) #7
  call void @llvm.lifetime.end.p0(i64 4, ptr %5) #7
  call void @llvm.lifetime.end.p0(i64 8, ptr %4) #7
  %229 = load i32, ptr %2, align 4
  ret i32 %229
}