; Function Attrs: nounwind uwtable
define internal range(i32 -2147483648, 1) i32 @ser_read_header(ptr noundef %0) #1 {
  %2 = getelementptr inbounds nuw i8, ptr %0, i64 24
  %3 = load ptr, ptr %2, align 8, !tbaa !11
  %4 = tail call ptr @avformat_new_stream(ptr noundef %0, ptr noundef null) #6
  %.not = icmp eq ptr %4, null
  br i1 %.not, label %89, label %5

5:                                                ; preds = %1
  %6 = getelementptr inbounds nuw i8, ptr %0, i64 32
  %7 = load ptr, ptr %6, align 8, !tbaa !26
  %8 = tail call i64 @avio_skip(ptr noundef %7, i64 noundef 14) #6
  %9 = load ptr, ptr %6, align 8, !tbaa !26
  %10 = tail call i64 @avio_skip(ptr noundef %9, i64 noundef 4) #6
  %11 = load ptr, ptr %6, align 8, !tbaa !26
  %12 = tail call i32 @avio_rl32(ptr noundef %11) #6
  %13 = load ptr, ptr %6, align 8, !tbaa !26
  %14 = tail call i32 @avio_rl32(ptr noundef %13) #6
  %15 = load ptr, ptr %6, align 8, !tbaa !26
  %16 = tail call i32 @avio_rl32(ptr noundef %15) #6
  %17 = getelementptr inbounds nuw i8, ptr %3, i64 8
  store i32 %16, ptr %17, align 8, !tbaa !27
  %18 = load ptr, ptr %6, align 8, !tbaa !26
  %19 = tail call i32 @avio_rl32(ptr noundef %18) #6
  %20 = getelementptr inbounds nuw i8, ptr %3, i64 12
  store i32 %19, ptr %20, align 4, !tbaa !30
  %21 = load ptr, ptr %6, align 8, !tbaa !26
  %22 = tail call i32 @avio_rl32(ptr noundef %21) #6
  %23 = load ptr, ptr %6, align 8, !tbaa !26
  %24 = tail call i32 @avio_rl32(ptr noundef %23) #6
  %25 = zext i32 %24 to i64
  %26 = getelementptr inbounds nuw i8, ptr %4, i64 48
  store i64 %25, ptr %26, align 8, !tbaa !31
  %27 = getelementptr inbounds nuw i8, ptr %4, i64 56
  store i64 %25, ptr %27, align 8, !tbaa !37
  %28 = load ptr, ptr %6, align 8, !tbaa !26
  %29 = tail call i64 @avio_skip(ptr noundef %28, i64 noundef 120) #6
  %30 = load ptr, ptr %6, align 8, !tbaa !26
  %31 = tail call i64 @avio_skip(ptr noundef %30, i64 noundef 8) #6
  %32 = load ptr, ptr %6, align 8, !tbaa !26
  %33 = tail call i64 @avio_skip(ptr noundef %32, i64 noundef 8) #6
  switch i32 %12, label %89 [
    i32 0, label %34
    i32 8, label %37
    i32 9, label %41
    i32 10, label %45
    i32 11, label %49
    i32 100, label %53
    i32 101, label %57
  ]

34:                                               ; preds = %5
  %.not66 = icmp eq i32 %14, 0
  %35 = select i1 %.not66, i32 30, i32 29
  %.inv = icmp sgt i32 %22, 8
  %36 = select i1 %.inv, i32 %35, i32 8
  br label %61

37:                                               ; preds = %5
  %38 = icmp slt i32 %22, 9
  %.not65 = icmp eq i32 %14, 0
  %39 = select i1 %.not65, i32 145, i32 146
  %40 = select i1 %38, i32 140, i32 %39
  br label %61

41:                                               ; preds = %5
  %42 = icmp slt i32 %22, 9
  %.not64 = icmp eq i32 %14, 0
  %43 = select i1 %.not64, i32 149, i32 150
  %44 = select i1 %42, i32 142, i32 %43
  br label %61

45:                                               ; preds = %5
  %46 = icmp slt i32 %22, 9
  %.not63 = icmp eq i32 %14, 0
  %47 = select i1 %.not63, i32 147, i32 148
  %48 = select i1 %46, i32 141, i32 %47
  br label %61

49:                                               ; preds = %5
  %50 = icmp slt i32 %22, 9
  %.not62 = icmp eq i32 %14, 0
  %51 = select i1 %.not62, i32 143, i32 144
  %52 = select i1 %50, i32 139, i32 %51
  br label %61

53:                                               ; preds = %5
  %54 = icmp slt i32 %22, 9
  %.not61 = icmp eq i32 %14, 0
  %55 = select i1 %.not61, i32 35, i32 34
  %56 = select i1 %54, i32 2, i32 %55
  br label %61

57:                                               ; preds = %5
  %58 = icmp slt i32 %22, 9
  %.not60 = icmp eq i32 %14, 0
  %59 = select i1 %.not60, i32 58, i32 57
  %60 = select i1 %58, i32 3, i32 %59
  br label %61

61:                                               ; preds = %57, %53, %49, %45, %41, %37, %34
  %.057 = phi i32 [ %60, %57 ], [ %56, %53 ], [ %52, %49 ], [ %48, %45 ], [ %44, %41 ], [ %40, %37 ], [ %36, %34 ]
  %62 = getelementptr inbounds nuw i8, ptr %4, i64 16
  %63 = load ptr, ptr %62, align 8, !tbaa !38
  store i32 0, ptr %63, align 8, !tbaa !39
  %64 = getelementptr inbounds nuw i8, ptr %63, i64 4
  store i32 13, ptr %64, align 4, !tbaa !42
  %65 = getelementptr inbounds nuw i8, ptr %3, i64 16
  %66 = getelementptr inbounds nuw i8, ptr %3, i64 20
  %67 = load i32, ptr %66, align 4, !tbaa !43
  %68 = load i32, ptr %65, align 8, !tbaa !44
  tail call void @avpriv_set_pts_info(ptr noundef nonnull %4, i32 noundef 64, i32 noundef %67, i32 noundef %68) #6
  %69 = load i32, ptr %17, align 8, !tbaa !27
  %70 = load ptr, ptr %62, align 8, !tbaa !38
  %71 = getelementptr inbounds nuw i8, ptr %70, i64 72
  store i32 %69, ptr %71, align 8, !tbaa !45
  %72 = load i32, ptr %20, align 4, !tbaa !30
  %73 = getelementptr inbounds nuw i8, ptr %70, i64 76
  store i32 %72, ptr %73, align 4, !tbaa !46
  %74 = getelementptr inbounds nuw i8, ptr %70, i64 44
  store i32 %.057, ptr %74, align 4, !tbaa !47
  %75 = tail call i32 @av_image_get_buffer_size(i32 noundef %.057, i32 noundef %69, i32 noundef %72, i32 noundef 1) #6
  %76 = icmp slt i32 %75, 0
  br i1 %76, label %89, label %77

77:                                               ; preds = %61
  %78 = load i64, ptr %27, align 8, !tbaa !37
  %79 = zext nneg i32 %75 to i64
  %80 = mul nsw i64 %78, %79
  %81 = add nsw i64 %80, 178
  %82 = getelementptr inbounds nuw i8, ptr %3, i64 24
  store i64 %81, ptr %82, align 8, !tbaa !48
  %83 = getelementptr inbounds nuw i8, ptr %0, i64 120
  store i32 %75, ptr %83, align 8, !tbaa !49
  %84 = getelementptr inbounds nuw i8, ptr %4, i64 32
  %85 = load i64, ptr %84, align 8
  %86 = tail call i64 @av_rescale_q(i64 noundef %79, i64 4294967304, i64 %85) #7
  %87 = load ptr, ptr %62, align 8, !tbaa !38
  %88 = getelementptr inbounds nuw i8, ptr %87, i64 48
  store i64 %86, ptr %88, align 8, !tbaa !50
  br label %89

89:                                               ; preds = %61, %5, %1, %77
  %.0 = phi i32 [ 0, %77 ], [ -12, %1 ], [ -1163346256, %5 ], [ %75, %61 ]
  ret i32 %.0
}